target datalayout = "e-m:e-p270:32:32-p271:32:32-p272:64:64-i64:64-i128:128-f80:128-n8:16:32:64-S128"
target triple = "x86_64-pc-linux-gnu"

@.str = private unnamed_addr constant [124 x i8] c"generated/home/dtcxzyw/WorkSpace/Projects/compilers/llvm-opt-benchmark/bench/libquic/libquic/boringssl/crypto/rsa/padding.c\00", align 1

; Function Attrs: nounwind uwtable
define hidden i32 @RSA_padding_add_PKCS1_OAEP_mgf1(ptr noundef %0, i32 noundef %1, ptr noundef %2, i32 noundef %3, ptr noundef %4, i32 noundef %5, ptr noundef %6, ptr noundef %7) #0 {
  %9 = alloca i32, align 4
  %10 = alloca ptr, align 8
  %11 = alloca i32, align 4
  %12 = alloca ptr, align 8
  %13 = alloca i32, align 4
  %14 = alloca ptr, align 8
  %15 = alloca i32, align 4
  %16 = alloca ptr, align 8
  %17 = alloca ptr, align 8
  %18 = alloca i32, align 4
  %19 = alloca i32, align 4
  %20 = alloca i32, align 4
  %21 = alloca ptr, align 8
  %22 = alloca ptr, align 8
  %23 = alloca ptr, align 8
  %24 = alloca [64 x i8], align 16
  %25 = alloca i32, align 4
  %26 = alloca i32, align 4
  store ptr %0, ptr %10, align 8, !tbaa !6
  store i32 %1, ptr %11, align 4, !tbaa !11
  store ptr %2, ptr %12, align 8, !tbaa !6
  store i32 %3, ptr %13, align 4, !tbaa !11
  store ptr %4, ptr %14, align 8, !tbaa !6
  store i32 %5, ptr %15, align 4, !tbaa !11
  store ptr %6, ptr %16, align 8, !tbaa !19
  store ptr %7, ptr %17, align 8, !tbaa !19
  call void @llvm.lifetime.start.p0(i64 4, ptr %18) #9
  call void @llvm.lifetime.start.p0(i64 4, ptr %19) #9
  call void @llvm.lifetime.start.p0(i64 4, ptr %20) #9
  call void @llvm.lifetime.start.p0(i64 8, ptr %21) #9
  call void @llvm.lifetime.start.p0(i64 8, ptr %22) #9
  call void @llvm.lifetime.start.p0(i64 8, ptr %23) #9
  store ptr null, ptr %23, align 8, !tbaa !6
  call void @llvm.lifetime.start.p0(i64 64, ptr %24) #9
  call void @llvm.lifetime.start.p0(i64 4, ptr %25) #9
  store i32 0, ptr %25, align 4, !tbaa !11
  %27 = load ptr, ptr %16, align 8, !tbaa !19
  %28 = icmp eq ptr %27, null
  br i1 %28, label %29, label %31

29:                                               ; preds = %8
  %30 = call ptr @EVP_sha1()
  store ptr %30, ptr %16, align 8, !tbaa !19
  br label %31

31:                                               ; preds = %29, %8
  %32 = load ptr, ptr %17, align 8, !tbaa !19
  %33 = icmp eq ptr %32, null
  br i1 %33, label %34, label %36

34:                                               ; preds = %31
  %35 = load ptr, ptr %16, align 8, !tbaa !19
  store ptr %35, ptr %17, align 8, !tbaa !19
  br label %36

36:                                               ; preds = %34, %31
  %37 = load ptr, ptr %16, align 8, !tbaa !19
  %38 = call i64 @EVP_MD_size(ptr noundef %37)
  %39 = trunc i64 %38 to i32
  store i32 %39, ptr %20, align 4, !tbaa !11
  %40 = load i32, ptr %11, align 4, !tbaa !11
  %41 = load i32, ptr %20, align 4, !tbaa !11
  %42 = mul i32 2, %41
  %43 = add i32 %42, 2
  %44 = icmp ult i32 %40, %43
  br i1 %44, label %45, label %46

45:                                               ; preds = %36
  call void @ERR_put_error(i32 noundef 4, i32 noundef 0, i32 noundef 126, ptr noundef @.str, i32 noundef 340)
  store i32 0, ptr %9, align 4
  store i32 1, ptr %26, align 4
  br label %207

46:                                               ; preds = %36
  %47 = load i32, ptr %11, align 4, !tbaa !11
  %48 = sub i32 %47, 1
  store i32 %48, ptr %19, align 4, !tbaa !11
  %49 = load i32, ptr %13, align 4, !tbaa !11
  %50 = load i32, ptr %19, align 4, !tbaa !11
  %51 = load i32, ptr %20, align 4, !tbaa !11
  %52 = mul i32 2, %51
  %53 = sub i32 %50, %52
  %54 = sub i32 %53, 1
  %55 = icmp ugt i32 %49, %54
  br i1 %55, label %56, label %57

56:                                               ; preds = %46
  call void @ERR_put_error(i32 noundef 4, i32 noundef 0, i32 noundef 114, ptr noundef @.str, i32 noundef 346)
  store i32 0, ptr %9, align 4
  store i32 1, ptr %26, align 4
  br label %207

57:                                               ; preds = %46
  %58 = load i32, ptr %19, align 4, !tbaa !11
  %59 = load i32, ptr %20, align 4, !tbaa !11
  %60 = mul i32 2, %59
  %61 = add i32 %60, 1
  %62 = icmp ult i32 %58, %61
  br i1 %62, label %63, label %64

63:                                               ; preds = %57
  call void @ERR_put_error(i32 noundef 4, i32 noundef 0, i32 noundef 126, ptr noundef @.str, i32 noundef 351)
  store i32 0, ptr %9, align 4
  store i32 1, ptr %26, align 4
  br label %207

64:                                               ; preds = %57
  %65 = load ptr, ptr %10, align 8, !tbaa !6
  %66 = getelementptr inbounds i8, ptr %65, i64 0
  store i8 0, ptr %66, align 1, !tbaa !13
  %67 = load ptr, ptr %10, align 8, !tbaa !6
  %68 = getelementptr inbounds i8, ptr %67, i64 1
  store ptr %68, ptr %22, align 8, !tbaa !6
  %69 = load ptr, ptr %10, align 8, !tbaa !6
  %70 = load i32, ptr %20, align 4, !tbaa !11
  %71 = zext i32 %70 to i64
  %72 = getelementptr inbounds nuw i8, ptr %69, i64 %71
  %73 = getelementptr inbounds i8, ptr %72, i64 1
  store ptr %73, ptr %21, align 8, !tbaa !6
  %74 = load ptr, ptr %14, align 8, !tbaa !6
  %75 = load i32, ptr %15, align 4, !tbaa !11
  %76 = zext i32 %75 to i64
  %77 = load ptr, ptr %21, align 8, !tbaa !6
  %78 = load ptr, ptr %16, align 8, !tbaa !19
  %79 = call i32 @EVP_Digest(ptr noundef %74, i64 noundef %76, ptr noundef %77, ptr noundef null, ptr noundef %78, ptr noundef null)
  %80 = icmp ne i32 %79, 0
  br i1 %80, label %82, label %81

81:                                               ; preds = %64
  store i32 0, ptr %9, align 4
  store i32 1, ptr %26, align 4
  br label %207

82:                                               ; preds = %64
  %83 = load ptr, ptr %21, align 8, !tbaa !6
  %84 = load i32, ptr %20, align 4, !tbaa !11
  %85 = zext i32 %84 to i64
  %86 = getelementptr inbounds nuw i8, ptr %83, i64 %85
  %87 = load i32, ptr %19, align 4, !tbaa !11
  %88 = load i32, ptr %13, align 4, !tbaa !11
  %89 = sub i32 %87, %88
  %90 = load i32, ptr %20, align 4, !tbaa !11
  %91 = mul i32 2, %90
  %92 = sub i32 %89, %91
  %93 = sub i32 %92, 1
  %94 = zext i32 %93 to i64
  call void @llvm.memset.p0.i64(ptr align 1 %86, i8 0, i64 %94, i1 false)
  %95 = load ptr, ptr %21, align 8, !tbaa !6
  %96 = load i32, ptr %19, align 4, !tbaa !11
  %97 = load i32, ptr %13, align 4, !tbaa !11
  %98 = sub i32 %96, %97
  %99 = load i32, ptr %20, align 4, !tbaa !11
  %100 = sub i32 %98, %99
  %101 = sub i32 %100, 1
  %102 = zext i32 %101 to i64
  %103 = getelementptr inbounds nuw i8, ptr %95, i64 %102
  store i8 1, ptr %103, align 1, !tbaa !13
  %104 = load ptr, ptr %21, align 8, !tbaa !6
  %105 = load i32, ptr %19, align 4, !tbaa !11
  %106 = zext i32 %105 to i64
  %107 = getelementptr inbounds nuw i8, ptr %104, i64 %106
  %108 = load i32, ptr %13, align 4, !tbaa !11
  %109 = zext i32 %108 to i64
  %110 = sub i64 0, %109
  %111 = getelementptr inbounds i8, ptr %107, i64 %110
  %112 = load i32, ptr %20, align 4, !tbaa !11
  %113 = zext i32 %112 to i64
  %114 = sub i64 0, %113
  %115 = getelementptr inbounds i8, ptr %111, i64 %114
  %116 = load ptr, ptr %12, align 8, !tbaa !6
  %117 = load i32, ptr %13, align 4, !tbaa !11
  %118 = zext i32 %117 to i64
  call void @llvm.memcpy.p0.p0.i64(ptr align 1 %115, ptr align 1 %116, i64 %118, i1 false)
  %119 = load ptr, ptr %22, align 8, !tbaa !6
  %120 = load i32, ptr %20, align 4, !tbaa !11
  %121 = zext i32 %120 to i64
  %122 = call i32 @RAND_bytes(ptr noundef %119, i64 noundef %121)
  %123 = icmp ne i32 %122, 0
  br i1 %123, label %125, label %124

124:                                              ; preds = %82
  store i32 0, ptr %9, align 4
  store i32 1, ptr %26, align 4
  br label %207

125:                                              ; preds = %82
  %126 = load i32, ptr %19, align 4, !tbaa !11
  %127 = load i32, ptr %20, align 4, !tbaa !11
  %128 = sub i32 %126, %127
  %129 = zext i32 %128 to i64
  %130 = call noalias ptr @malloc(i64 noundef %129) #10
  store ptr %130, ptr %23, align 8, !tbaa !6
  %131 = load ptr, ptr %23, align 8, !tbaa !6
  %132 = icmp eq ptr %131, null
  br i1 %132, label %133, label %134

133:                                              ; preds = %125
  call void @ERR_put_error(i32 noundef 4, i32 noundef 0, i32 noundef 65, ptr noundef @.str, i32 noundef 371)
  store i32 0, ptr %9, align 4
  store i32 1, ptr %26, align 4
  br label %207

134:                                              ; preds = %125
  %135 = load ptr, ptr %23, align 8, !tbaa !6
  %136 = load i32, ptr %19, align 4, !tbaa !11
  %137 = load i32, ptr %20, align 4, !tbaa !11
  %138 = sub i32 %136, %137
  %139 = load ptr, ptr %22, align 8, !tbaa !6
  %140 = load i32, ptr %20, align 4, !tbaa !11
  %141 = load ptr, ptr %17, align 8, !tbaa !19
  %142 = call i32 @PKCS1_MGF1(ptr noundef %135, i32 noundef %138, ptr noundef %139, i32 noundef %140, ptr noundef %141)
  %143 = icmp slt i32 %142, 0
  br i1 %143, label %144, label %145

144:                                              ; preds = %134
  br label %204

145:                                              ; preds = %134
  store i32 0, ptr %18, align 4, !tbaa !11
  br label %146

146:                                              ; preds = %167, %145
  %147 = load i32, ptr %18, align 4, !tbaa !11
  %148 = load i32, ptr %19, align 4, !tbaa !11
  %149 = load i32, ptr %20, align 4, !tbaa !11
  %150 = sub i32 %148, %149
  %151 = icmp ult i32 %147, %150
  br i1 %151, label %152, label %170

152:                                              ; preds = %146
  %153 = load ptr, ptr %23, align 8, !tbaa !6
  %154 = load i32, ptr %18, align 4, !tbaa !11
  %155 = zext i32 %154 to i64
  %156 = getelementptr inbounds nuw i8, ptr %153, i64 %155
  %157 = load i8, ptr %156, align 1, !tbaa !13
  %158 = zext i8 %157 to i32
  %159 = load ptr, ptr %21, align 8, !tbaa !6
  %160 = load i32, ptr %18, align 4, !tbaa !11
  %161 = zext i32 %160 to i64
  %162 = getelementptr inbounds nuw i8, ptr %159, i64 %161
  %163 = load i8, ptr %162, align 1, !tbaa !13
  %164 = zext i8 %163 to i32
  %165 = xor i32 %164, %158
  %166 = trunc i32 %165 to i8
  store i8 %166, ptr %162, align 1, !tbaa !13
  br label %167

167:                                              ; preds = %152
  %168 = load i32, ptr %18, align 4, !tbaa !11
  %169 = add i32 %168, 1
  store i32 %169, ptr %18, align 4, !tbaa !11
  br label %146, !llvm.loop !21

170:                                              ; preds = %146
  %171 = getelementptr inbounds [64 x i8], ptr %24, i64 0, i64 0
  %172 = load i32, ptr %20, align 4, !tbaa !11
  %173 = load ptr, ptr %21, align 8, !tbaa !6
  %174 = load i32, ptr %19, align 4, !tbaa !11
  %175 = load i32, ptr %20, align 4, !tbaa !11
  %176 = sub i32 %174, %175
  %177 = load ptr, ptr %17, align 8, !tbaa !19
  %178 = call i32 @PKCS1_MGF1(ptr noundef %171, i32 noundef %172, ptr noundef %173, i32 noundef %176, ptr noundef %177)
  %179 = icmp slt i32 %178, 0
  br i1 %179, label %180, label %181

180:                                              ; preds = %170
  br label %204

181:                                              ; preds = %170
  store i32 0, ptr %18, align 4, !tbaa !11
  br label %182

182:                                              ; preds = %200, %181
  %183 = load i32, ptr %18, align 4, !tbaa !11
  %184 = load i32, ptr %20, align 4, !tbaa !11
  %185 = icmp ult i32 %183, %184
  br i1 %185, label %186, label %203

186:                                              ; preds = %182
  %187 = load i32, ptr %18, align 4, !tbaa !11
  %188 = zext i32 %187 to i64
  %189 = getelementptr inbounds nuw [64 x i8], ptr %24, i64 0, i64 %188
  %190 = load i8, ptr %189, align 1, !tbaa !13
  %191 = zext i8 %190 to i32
  %192 = load ptr, ptr %22, align 8, !tbaa !6
  %193 = load i32, ptr %18, align 4, !tbaa !11
  %194 = zext i32 %193 to i64
  %195 = getelementptr inbounds nuw i8, ptr %192, i64 %194
  %196 = load i8, ptr %195, align 1, !tbaa !13
  %197 = zext i8 %196 to i32
  %198 = xor i32 %197, %191
  %199 = trunc i32 %198 to i8
  store i8 %199, ptr %195, align 1, !tbaa !13
  br label %200

200:                                              ; preds = %186
  %201 = load i32, ptr %18, align 4, !tbaa !11
  %202 = add i32 %201, 1
  store i32 %202, ptr %18, align 4, !tbaa !11
  br label %182, !llvm.loop !22

203:                                              ; preds = %182
  store i32 1, ptr %25, align 4, !tbaa !11
  br label %204

204:                                              ; preds = %203, %180, %144
  %205 = load ptr, ptr %23, align 8, !tbaa !6
  call void @free(ptr noundef %205) #9
  %206 = load i32, ptr %25, align 4, !tbaa !11
  store i32 %206, ptr %9, align 4
  store i32 1, ptr %26, align 4
  br label %207

207:                                              ; preds = %204, %133, %124, %81, %63, %56, %45
  call void @llvm.lifetime.end.p0(i64 4, ptr %25) #9
  call void @llvm.lifetime.end.p0(i64 64, ptr %24) #9
  call void @llvm.lifetime.end.p0(i64 8, ptr %23) #9
  call void @llvm.lifetime.end.p0(i64 8, ptr %22) #9
  call void @llvm.lifetime.end.p0(i64 8, ptr %21) #9
  call void @llvm.lifetime.end.p0(i64 4, ptr %20) #9
  call void @llvm.lifetime.end.p0(i64 4, ptr %19) #9
  call void @llvm.lifetime.end.p0(i64 4, ptr %18) #9
  %208 = load i32, ptr %9, align 4
  ret i32 %208
}