; Function Attrs: nounwind uwtable
define hidden range(i32 0, 2) i32 @RSA_padding_add_PKCS1_OAEP_mgf1(ptr noundef %0, i32 noundef %1, ptr noundef readonly captures(none) %2, i32 noundef %3, ptr noundef %4, i32 noundef %5, ptr noundef %6, ptr noundef %7) local_unnamed_addr #0 {
  %9 = alloca [64 x i8], align 16
  call void @llvm.lifetime.start.p0(i64 64, ptr nonnull %9) #8
  %10 = icmp eq ptr %6, null
  br i1 %10, label %11, label %13

11:                                               ; preds = %8
  %12 = tail call ptr @EVP_sha1() #8
  br label %13

13:                                               ; preds = %11, %8
  %.068 = phi ptr [ %12, %11 ], [ %6, %8 ]
  %14 = icmp eq ptr %7, null
  %spec.select = select i1 %14, ptr %.068, ptr %7
  %15 = tail call i64 @EVP_MD_size(ptr noundef %.068) #8
  %16 = trunc i64 %15 to i32
  %17 = shl i32 %16, 1
  %18 = add i32 %17, 2
  %19 = icmp ult i32 %1, %18
  br i1 %19, label %20, label %21

20:                                               ; preds = %13
  tail call void @ERR_put_error(i32 noundef 4, i32 noundef 0, i32 noundef 126, ptr noundef nonnull @.str, i32 noundef 340) #8
  br label %74

21:                                               ; preds = %13
  %22 = add i32 %1, -1
  %23 = xor i32 %17, -1
  %24 = add i32 %22, %23
  %25 = icmp ugt i32 %3, %24
  br i1 %25, label %26, label %27

26:                                               ; preds = %21
  tail call void @ERR_put_error(i32 noundef 4, i32 noundef 0, i32 noundef 114, ptr noundef nonnull @.str, i32 noundef 346) #8
  br label %74

27:                                               ; preds = %21
  %.not = icmp ugt i32 %22, %17
  br i1 %.not, label %29, label %28

28:                                               ; preds = %27
  tail call void @ERR_put_error(i32 noundef 4, i32 noundef 0, i32 noundef 126, ptr noundef nonnull @.str, i32 noundef 351) #8
  br label %74

29:                                               ; preds = %27
  store i8 0, ptr %0, align 1, !tbaa !6
  %30 = getelementptr inbounds nuw i8, ptr %0, i64 1
  %31 = and i64 %15, 4294967295
  %32 = getelementptr inbounds nuw i8, ptr %0, i64 %31
  %33 = getelementptr inbounds nuw i8, ptr %32, i64 1
  %34 = zext i32 %5 to i64
  %35 = tail call i32 @EVP_Digest(ptr noundef %4, i64 noundef %34, ptr noundef nonnull %33, ptr noundef null, ptr noundef %.068, ptr noundef null) #8
  %.not78 = icmp eq i32 %35, 0
  br i1 %.not78, label %74, label %36

36:                                               ; preds = %29
  %37 = getelementptr inbounds nuw i8, ptr %33, i64 %31
  %38 = sub i32 %22, %3
  %39 = add i32 %38, %23
  %40 = zext i32 %39 to i64
  tail call void @llvm.memset.p0.i64(ptr nonnull align 1 %37, i8 0, i64 %40, i1 false)
  %41 = xor i32 %16, -1
  %42 = add i32 %38, %41
  %43 = zext i32 %42 to i64
  %44 = getelementptr inbounds nuw i8, ptr %33, i64 %43
  store i8 1, ptr %44, align 1, !tbaa !6
  %45 = zext i32 %22 to i64
  %46 = getelementptr inbounds nuw i8, ptr %33, i64 %45
  %47 = zext i32 %3 to i64
  %48 = sub nsw i64 0, %47
  %49 = getelementptr inbounds i8, ptr %46, i64 %48
  %50 = sub nsw i64 0, %31
  %51 = getelementptr inbounds i8, ptr %49, i64 %50
  tail call void @llvm.memcpy.p0.p0.i64(ptr nonnull align 1 %51, ptr align 1 %2, i64 %47, i1 false)
  %52 = tail call i32 @RAND_bytes(ptr noundef nonnull %30, i64 noundef %31) #8
  %.not79 = icmp eq i32 %52, 0
  br i1 %.not79, label %74, label %53

53:                                               ; preds = %36
  %54 = sub i32 %22, %16
  %55 = zext i32 %54 to i64
  %56 = tail call noalias ptr @malloc(i64 noundef %55) #9
  %57 = icmp eq ptr %56, null
  br i1 %57, label %58, label %59

58:                                               ; preds = %53
  tail call void @ERR_put_error(i32 noundef 4, i32 noundef 0, i32 noundef 65, ptr noundef nonnull @.str, i32 noundef 371) #8
  br label %74

59:                                               ; preds = %53
  %60 = tail call fastcc i32 @PKCS1_MGF1(ptr noundef nonnull %56, i32 noundef %54, ptr noundef nonnull %30, i32 noundef %16, ptr noundef %spec.select)
  %61 = icmp slt i32 %60, 0
  br i1 %61, label %.loopexit, label %.preheader80

.preheader80:                                     ; preds = %59
  %.not84 = icmp eq i32 %22, %16
  br i1 %.not84, label %._crit_edge, label %.lr.ph.preheader

.lr.ph.preheader:                                 ; preds = %.preheader80
  %wide.trip.count = zext i32 %54 to i64
  br label %.lr.ph

.lr.ph:                                           ; preds = %.lr.ph.preheader, %.lr.ph
  %indvars.iv = phi i64 [ 0, %.lr.ph.preheader ], [ %indvars.iv.next, %.lr.ph ]
  %62 = getelementptr inbounds nuw i8, ptr %56, i64 %indvars.iv
  %63 = load i8, ptr %62, align 1, !tbaa !6
  %64 = getelementptr inbounds nuw i8, ptr %33, i64 %indvars.iv
  %65 = load i8, ptr %64, align 1, !tbaa !6
  %66 = xor i8 %65, %63
  store i8 %66, ptr %64, align 1, !tbaa !6
  %indvars.iv.next = add nuw nsw i64 %indvars.iv, 1
  %exitcond.not = icmp eq i64 %indvars.iv.next, %wide.trip.count
  br i1 %exitcond.not, label %._crit_edge, label %.lr.ph, !llvm.loop !14

._crit_edge:                                      ; preds = %.lr.ph, %.preheader80
  %67 = call fastcc i32 @PKCS1_MGF1(ptr noundef nonnull %9, i32 noundef %16, ptr noundef nonnull %33, i32 noundef %54, ptr noundef %spec.select)
  %68 = icmp slt i32 %67, 0
  br i1 %68, label %.loopexit, label %.preheader

.preheader:                                       ; preds = %._crit_edge
  %.not85 = icmp eq i32 %16, 0
  br i1 %.not85, label %.loopexit, label %.lr.ph83.preheader

.lr.ph83.preheader:                               ; preds = %.preheader
  %wide.trip.count90 = and i64 %15, 4294967295
  br label %.lr.ph83

.lr.ph83:                                         ; preds = %.lr.ph83.preheader, %.lr.ph83
  %indvars.iv87 = phi i64 [ 0, %.lr.ph83.preheader ], [ %indvars.iv.next88, %.lr.ph83 ]
  %69 = getelementptr inbounds nuw [64 x i8], ptr %9, i64 0, i64 %indvars.iv87
  %70 = load i8, ptr %69, align 1, !tbaa !6
  %71 = getelementptr inbounds nuw i8, ptr %30, i64 %indvars.iv87
  %72 = load i8, ptr %71, align 1, !tbaa !6
  %73 = xor i8 %72, %70
  store i8 %73, ptr %71, align 1, !tbaa !6
  %indvars.iv.next88 = add nuw nsw i64 %indvars.iv87, 1
  %exitcond91.not = icmp eq i64 %indvars.iv.next88, %wide.trip.count90
  br i1 %exitcond91.not, label %.loopexit, label %.lr.ph83, !llvm.loop !15

.loopexit:                                        ; preds = %.lr.ph83, %.preheader, %._crit_edge, %59
  %.0 = phi i32 [ 0, %59 ], [ 0, %._crit_edge ], [ 1, %.preheader ], [ 1, %.lr.ph83 ]
  call void @free(ptr noundef %56) #8
  br label %74

74:                                               ; preds = %36, %29, %.loopexit, %58, %28, %26, %20
  %.067 = phi i32 [ 0, %20 ], [ 0, %26 ], [ 0, %28 ], [ 0, %58 ], [ %.0, %.loopexit ], [ 0, %29 ], [ 0, %36 ]
  call void @llvm.lifetime.end.p0(i64 64, ptr nonnull %9) #8
  ret i32 %.067
}